; Function Attrs: nounwind uwtable
define dso_local ptr @hash_search(ptr noundef captures(address) %0, ptr noundef %1, i32 noundef %2, ptr noundef captures(address_is_null) %3) local_unnamed_addr #0 {
  %5 = getelementptr inbounds nuw i8, ptr %0, i64 16
  %6 = load ptr, ptr %5, align 8
  %7 = getelementptr inbounds nuw i8, ptr %0, i64 72
  %8 = load i64, ptr %7, align 8
  %9 = tail call i32 %6(ptr noundef %1, i64 noundef %8) #17
  %10 = tail call ptr @hash_search_with_hash_value(ptr noundef %0, ptr noundef %1, i32 noundef %9, i32 noundef %2, ptr noundef %3)
  ret ptr %10
}